; Function Attrs: mustprogress uwtable
define void @_ZN32pxrInternal_v0_24__pxrReserved__12GfColorSpaceC2ERKNS_7TfTokenERKNS_7GfVec2fES6_S6_S6_ff(ptr noundef nonnull align 8 dereferenceable(16) initializes((0, 8)) %0, ptr noundef nonnull readonly align 8 captures(none) dereferenceable(8) %1, ptr noundef nonnull readonly align 4 captures(none) dereferenceable(8) %2, ptr noundef nonnull readonly align 4 captures(none) dereferenceable(8) %3, ptr noundef nonnull readonly align 4 captures(none) dereferenceable(8) %4, ptr noundef nonnull readonly align 4 captures(none) dereferenceable(8) %5, float noundef %6, float noundef %7) unnamed_addr #0 align 2 personality ptr @__gxx_personality_v0 {
  %9 = alloca %struct.pxr_nc_1_0_ColorSpaceDescriptor, align 8
  %10 = tail call noalias noundef nonnull dereferenceable(8) ptr @_Znwm(i64 noundef 8) #15
  store ptr null, ptr %10, align 8
  store ptr %10, ptr %0, align 8
  %11 = getelementptr inbounds nuw i8, ptr %0, i64 8
  tail call void @_ZNSt14__shared_countILN9__gnu_cxx12_Lock_policyE2EEC2IPN32pxrInternal_v0_24__pxrReserved__12GfColorSpace5_DataEEET_(ptr noundef nonnull align 8 dereferenceable(8) %11, ptr noundef nonnull %10)
  %12 = load ptr, ptr %1, align 8
  %13 = ptrtoint ptr %12 to i64
  %14 = and i64 %13, -8
  %.not.i = icmp eq i64 %14, 0
  br i1 %.not.i, label %18, label %15

15:                                               ; preds = %8
  %16 = inttoptr i64 %14 to ptr
  %17 = getelementptr inbounds nuw i8, ptr %16, i64 16
  br label %_ZNK32pxrInternal_v0_24__pxrReserved__7TfToken9GetStringB5cxx11Ev.exit

18:                                               ; preds = %8
  %19 = invoke noundef nonnull align 8 dereferenceable(32) ptr @_ZN32pxrInternal_v0_24__pxrReserved__7TfToken15_GetEmptyStringB5cxx11Ev()
          to label %_ZNK32pxrInternal_v0_24__pxrReserved__7TfToken9GetStringB5cxx11Ev.exit unwind label %47

_ZNK32pxrInternal_v0_24__pxrReserved__7TfToken9GetStringB5cxx11Ev.exit: ; preds = %15, %18
  %20 = phi ptr [ %17, %15 ], [ %19, %18 ]
  %21 = tail call noundef ptr @_ZNKSt7__cxx1112basic_stringIcSt11char_traitsIcESaIcEE5c_strEv(ptr noundef nonnull align 8 dereferenceable(32) %20) #16
  store ptr %21, ptr %9, align 8
  %22 = load float, ptr %2, align 4
  %23 = getelementptr inbounds nuw i8, ptr %9, i64 8
  store float %22, ptr %23, align 8
  %24 = getelementptr inbounds nuw i8, ptr %2, i64 4
  %25 = load float, ptr %24, align 4
  %26 = getelementptr inbounds nuw i8, ptr %9, i64 12
  store float %25, ptr %26, align 4
  %27 = load float, ptr %3, align 4
  %28 = getelementptr inbounds nuw i8, ptr %9, i64 16
  store float %27, ptr %28, align 8
  %29 = getelementptr inbounds nuw i8, ptr %3, i64 4
  %30 = load float, ptr %29, align 4
  %31 = getelementptr inbounds nuw i8, ptr %9, i64 20
  store float %30, ptr %31, align 4
  %32 = load float, ptr %4, align 4
  %33 = getelementptr inbounds nuw i8, ptr %9, i64 24
  store float %32, ptr %33, align 8
  %34 = getelementptr inbounds nuw i8, ptr %4, i64 4
  %35 = load float, ptr %34, align 4
  %36 = getelementptr inbounds nuw i8, ptr %9, i64 28
  store float %35, ptr %36, align 4
  %37 = load float, ptr %5, align 4
  %38 = getelementptr inbounds nuw i8, ptr %9, i64 32
  store float %37, ptr %38, align 8
  %39 = getelementptr inbounds nuw i8, ptr %5, i64 4
  %40 = load float, ptr %39, align 4
  %41 = getelementptr inbounds nuw i8, ptr %9, i64 36
  store float %40, ptr %41, align 4
  %42 = getelementptr inbounds nuw i8, ptr %9, i64 40
  store float %6, ptr %42, align 8
  %43 = getelementptr inbounds nuw i8, ptr %9, i64 44
  store float %7, ptr %43, align 4
  %44 = invoke ptr @pxr_nc_1_0_CreateColorSpace(ptr noundef nonnull %9)
          to label %45 unwind label %47

45:                                               ; preds = %_ZNK32pxrInternal_v0_24__pxrReserved__7TfToken9GetStringB5cxx11Ev.exit
  %46 = load ptr, ptr %0, align 8
  store ptr %44, ptr %46, align 8
  ret void

47:                                               ; preds = %18, %_ZNK32pxrInternal_v0_24__pxrReserved__7TfToken9GetStringB5cxx11Ev.exit
  %48 = landingpad { ptr, i32 }
          cleanup
  call void @_ZNSt10shared_ptrIN32pxrInternal_v0_24__pxrReserved__12GfColorSpace5_DataEED2Ev(ptr noundef nonnull align 8 dereferenceable(16) %0) #16
  resume { ptr, i32 } %48
}